target datalayout = "e-m:e-p270:32:32-p271:32:32-p272:64:64-i64:64-i128:128-f80:128-n8:16:32:64-S128"
target triple = "x86_64-pc-linux-gnu"

%struct.wscbor_chunk_t = type { ptr, i32, i32, i32, ptr, ptr, i32, i8, i64 }

; Function Attrs: null_pointer_is_valid sspstrong uwtable
define internal ptr @get_header_value(ptr noundef %0, ptr noundef %1, ptr noundef %2) #0 {
  %4 = alloca ptr, align 8
  %5 = alloca ptr, align 8
  %6 = alloca ptr, align 8
  %7 = alloca ptr, align 8
  %8 = alloca ptr, align 8
  %9 = alloca ptr, align 8
  %10 = alloca ptr, align 8
  store ptr %0, ptr %4, align 8
  store ptr %1, ptr %5, align 8
  store ptr %2, ptr %6, align 8
  call void @llvm.lifetime.start.p0(i64 8, ptr %7) #12
  store ptr null, ptr %7, align 8
  call void @llvm.lifetime.start.p0(i64 8, ptr %8) #12
  %11 = load ptr, ptr %4, align 8
  %12 = load ptr, ptr %5, align 8
  %13 = load ptr, ptr %6, align 8
  %14 = call ptr @wscbor_chunk_read(ptr noundef %11, ptr noundef %12, ptr noundef %13)
  store ptr %14, ptr %8, align 8
  %15 = load ptr, ptr %8, align 8
  %16 = getelementptr inbounds nuw %struct.wscbor_chunk_t, ptr %15, i32 0, i32 6
  %17 = load i32, ptr %16, align 8
  switch i32 %17, label %39 [
    i32 0, label %18
    i32 1, label %18
    i32 3, label %29
  ]

18:                                               ; preds = %3, %3
  call void @llvm.lifetime.start.p0(i64 8, ptr %9) #12
  %19 = load ptr, ptr %4, align 8
  %20 = load ptr, ptr %8, align 8
  %21 = call ptr @wscbor_require_int64(ptr noundef %19, ptr noundef %20)
  store ptr %21, ptr %9, align 8
  %22 = load ptr, ptr %9, align 8
  %23 = icmp ne ptr %22, null
  br i1 %23, label %24, label %28

24:                                               ; preds = %18
  %25 = load ptr, ptr %9, align 8
  %26 = load i64, ptr %25, align 8
  %27 = call ptr @g_variant_new_int64(i64 noundef %26)
  store ptr %27, ptr %7, align 8
  br label %28

28:                                               ; preds = %24, %18
  call void @llvm.lifetime.end.p0(i64 8, ptr %9) #12
  br label %40

29:                                               ; preds = %3
  call void @llvm.lifetime.start.p0(i64 8, ptr %10) #12
  %30 = load ptr, ptr %4, align 8
  %31 = load ptr, ptr %8, align 8
  %32 = call ptr @wscbor_require_tstr(ptr noundef %30, ptr noundef %31)
  store ptr %32, ptr %10, align 8
  %33 = load ptr, ptr %10, align 8
  %34 = icmp ne ptr %33, null
  br i1 %34, label %35, label %38

35:                                               ; preds = %29
  %36 = load ptr, ptr %10, align 8
  %37 = call ptr @g_variant_new_string(ptr noundef %36)
  store ptr %37, ptr %7, align 8
  br label %38

38:                                               ; preds = %35, %29
  call void @llvm.lifetime.end.p0(i64 8, ptr %10) #12
  br label %40

39:                                               ; preds = %3
  br label %40

40:                                               ; preds = %39, %38, %28
  %41 = load ptr, ptr %8, align 8
  call void @wscbor_chunk_free(ptr noundef %41)
  %42 = load ptr, ptr %7, align 8
  call void @llvm.lifetime.end.p0(i64 8, ptr %8) #12
  call void @llvm.lifetime.end.p0(i64 8, ptr %7) #12
  ret ptr %42
}