; Function Attrs: null_pointer_is_valid sspstrong uwtable
define internal fastcc ptr @get_header_value(ptr noundef %0, ptr noundef %1, ptr noundef %2) unnamed_addr #0 {
  %4 = tail call ptr @wscbor_chunk_read(ptr noundef %0, ptr noundef %1, ptr noundef %2)
  %5 = getelementptr inbounds nuw i8, ptr %4, i64 40
  %6 = load i32, ptr %5, align 8
  switch i32 %6, label %16 [
    i32 0, label %7
    i32 1, label %7
    i32 3, label %12
  ]

7:                                                ; preds = %3, %3
  %8 = tail call ptr @wscbor_require_int64(ptr noundef %0, ptr noundef %4)
  %.not16 = icmp eq ptr %8, null
  br i1 %.not16, label %16, label %9

9:                                                ; preds = %7
  %10 = load i64, ptr %8, align 8
  %11 = tail call ptr @g_variant_new_int64(i64 noundef %10)
  br label %16

12:                                               ; preds = %3
  %13 = tail call ptr @wscbor_require_tstr(ptr noundef %0, ptr noundef %4)
  %.not = icmp eq ptr %13, null
  br i1 %.not, label %16, label %14

14:                                               ; preds = %12
  %15 = tail call ptr @g_variant_new_string(ptr noundef nonnull %13)
  br label %16

16:                                               ; preds = %12, %14, %7, %9, %3
  %.1 = phi ptr [ null, %3 ], [ %11, %9 ], [ null, %7 ], [ %15, %14 ], [ null, %12 ]
  tail call void @wscbor_chunk_free(ptr noundef %4)
  ret ptr %.1
}